target datalayout = "e-m:e-p270:32:32-p271:32:32-p272:64:64-i64:64-i128:128-f80:128-n8:16:32:64-S128"
target triple = "x86_64-pc-linux-gnu"

%class.anon.7 = type { i8 }
%class.anon.238 = type { %class.anon.7 }
%"struct.std::atomic" = type { %"struct.std::__atomic_base" }
%"struct.std::__atomic_base" = type { i64 }
%"class.rc::Shrinkable<std::__cxx11::basic_string<char>>::IShrinkableImpl" = type { ptr }
%"class.rc::Shrinkable.241" = type { ptr }
%"class.rc::Shrinkable<std::__cxx11::basic_string<char>>::ShrinkableImpl.242" = type { %"class.rc::Shrinkable<std::__cxx11::basic_string<char>>::IShrinkableImpl", %"class.rc::shrinkable::detail::MapShrinkable.243", %"struct.std::atomic" }
%"class.rc::shrinkable::detail::MapShrinkable.243" = type { %class.anon.238, %"class.rc::Shrinkable.241" }

; Function Attrs: mustprogress nounwind uwtable
define linkonce_odr void @_ZN2rc10ShrinkableISt5tupleIJN3nix13StorePathNameEEEED2Ev(ptr noundef nonnull align 8 dereferenceable(8) %0) unnamed_addr #4 comdat align 2 personality ptr @__gxx_personality_v0 {
  %2 = alloca ptr, align 8
  store ptr %0, ptr %2, align 8
  %3 = load ptr, ptr %2, align 8
  %4 = getelementptr inbounds %"class.rc::Shrinkable.241", ptr %3, i32 0, i32 0
  %5 = load ptr, ptr %4, align 8
  %6 = icmp ne ptr %5, null
  br i1 %6, label %7, label %14

7:                                                ; preds = %1
  %8 = getelementptr inbounds %"class.rc::Shrinkable.241", ptr %3, i32 0, i32 0
  %9 = load ptr, ptr %8, align 8
  %10 = load ptr, ptr %9, align 8
  %11 = getelementptr inbounds ptr, ptr %10, i64 3
  %12 = load ptr, ptr %11, align 8
  invoke void %12(ptr noundef nonnull align 8 dereferenceable(8) %9)
          to label %13 unwind label %15

13:                                               ; preds = %7
  br label %14

14:                                               ; preds = %13, %1
  ret void

15:                                               ; preds = %7
  %16 = landingpad { ptr, i32 }
          catch ptr null
  %17 = extractvalue { ptr, i32 } %16, 0
  call void @__clang_call_terminate(ptr %17) #14
  unreachable
}

; Function Attrs: mustprogress nounwind uwtable
define linkonce_odr void @_ZN2rc10ShrinkableINSt7__cxx1112basic_stringIcSt11char_traitsIcESaIcEEEE15IShrinkableImplD2Ev(ptr noundef nonnull align 8 dereferenceable(8) %0) unnamed_addr #4 comdat align 2 {
  %2 = alloca ptr, align 8
  store ptr %0, ptr %2, align 8
  ret void
}

; Function Attrs: mustprogress nounwind uwtable
define internal void @"_ZN2rc10shrinkable6detail13MapShrinkableISt5tupleIJN3nix13StorePathNameEEEZNS_3gen5applyIZNS_9ArbitraryINS4_9StorePathEvE9arbitraryEvE3$_0JS5_EEENS_3GenINSt13invoke_resultIT_JDpT0_EE4typeEEEOSF_DpNSD_ISG_EEEUlOS6_E_ED2Ev"(ptr noundef nonnull align 8 dereferenceable(16) %0) unnamed_addr #4 align 2 {
  %2 = alloca ptr, align 8
  store ptr %0, ptr %2, align 8
  %3 = load ptr, ptr %2, align 8
  %4 = getelementptr inbounds %"class.rc::shrinkable::detail::MapShrinkable.243", ptr %3, i32 0, i32 1
  call void @_ZN2rc10ShrinkableISt5tupleIJN3nix13StorePathNameEEEED2Ev(ptr noundef nonnull align 8 dereferenceable(8) %4) #3
  ret void
}

; Function Attrs: mustprogress nounwind uwtable
define internal void @"_ZN2rc10ShrinkableINSt7__cxx1112basic_stringIcSt11char_traitsIcESaIcEEEE14ShrinkableImplINS_10shrinkable6detail13MapShrinkableISt5tupleIJN3nix13StorePathNameEEEZNS_3gen5applyIZNS_9ArbitraryINSD_9StorePathEvE9arbitraryEvE3$_0JSE_EEENS_3GenINSt13invoke_resultIT_JDpT0_EE4typeEEEOSO_DpNSM_ISP_EEEUlOSF_E_EEED2Ev"(ptr noundef nonnull align 8 dereferenceable(32) %0) unnamed_addr #4 align 2 {
  %2 = alloca ptr, align 8
  store ptr %0, ptr %2, align 8
  %3 = load ptr, ptr %2, align 8
  store ptr getelementptr inbounds ({ [8 x ptr] }, ptr @"_ZTVN2rc10ShrinkableINSt7__cxx1112basic_stringIcSt11char_traitsIcESaIcEEEE14ShrinkableImplINS_10shrinkable6detail13MapShrinkableISt5tupleIJN3nix13StorePathNameEEEZNS_3gen5applyIZNS_9ArbitraryINSD_9StorePathEvE9arbitraryEvE3$_0JSE_EEENS_3GenINSt13invoke_resultIT_JDpT0_EE4typeEEEOSO_DpNSM_ISP_EEEUlOSF_E_EEEE", i32 0, i32 0, i32 2), ptr %3, align 8
  %4 = getelementptr inbounds %"class.rc::Shrinkable<std::__cxx11::basic_string<char>>::ShrinkableImpl.242", ptr %3, i32 0, i32 1
  call void @"_ZN2rc10shrinkable6detail13MapShrinkableISt5tupleIJN3nix13StorePathNameEEEZNS_3gen5applyIZNS_9ArbitraryINS4_9StorePathEvE9arbitraryEvE3$_0JS5_EEENS_3GenINSt13invoke_resultIT_JDpT0_EE4typeEEEOSF_DpNSD_ISG_EEEUlOS6_E_ED2Ev"(ptr noundef nonnull align 8 dereferenceable(16) %4) #3
  call void @_ZN2rc10ShrinkableINSt7__cxx1112basic_stringIcSt11char_traitsIcESaIcEEEE15IShrinkableImplD2Ev(ptr noundef nonnull align 8 dereferenceable(8) %3) #3
  ret void
}